target datalayout = "e-m:e-p270:32:32-p271:32:32-p272:64:64-i64:64-i128:128-f80:128-n8:16:32:64-S128"
target triple = "x86_64-unknown-linux-gnu"

%class.anon = type { i8 }

@_ZN6icu_759SPUStringD1Ev = unnamed_addr alias void (ptr), ptr @_ZN6icu_759SPUStringD2Ev

; Function Attrs: mustprogress nounwind uwtable
define internal void @"_ZZN6icu_7513SPUStringPoolC1ER10UErrorCodeENK3$_0clEPv"(ptr noundef nonnull align 1 dereferenceable(1) %this, ptr noundef %obj) #1 align 2 {
entry:
  %this.addr = alloca ptr, align 8
  %obj.addr = alloca ptr, align 8
  store ptr %this, ptr %this.addr, align 8
  store ptr %obj, ptr %obj.addr, align 8
  %0 = load ptr, ptr %obj.addr, align 8
  %isnull = icmp eq ptr %0, null
  br i1 %isnull, label %delete.end, label %delete.notnull

delete.notnull:                                   ; preds = %entry
  call void @_ZN6icu_759SPUStringD1Ev(ptr noundef nonnull align 8 dereferenceable(12) %0) #6
  call void @_ZN6icu_757UMemorydlEPv(ptr noundef %0) #6
  br label %delete.end

delete.end:                                       ; preds = %delete.notnull, %entry
  ret void
}

; Function Attrs: mustprogress uwtable
define internal void @"_ZZN6icu_7513SPUStringPoolC1ER10UErrorCodeEN3$_08__invokeEPv"(ptr noundef %obj) #0 align 2 {
entry:
  %obj.addr = alloca ptr, align 8
  %unused.capture = alloca %class.anon, align 1
  store ptr %obj, ptr %obj.addr, align 8
  %0 = load ptr, ptr %obj.addr, align 8
  call void @"_ZZN6icu_7513SPUStringPoolC1ER10UErrorCodeENK3$_0clEPv"(ptr noundef nonnull align 1 dereferenceable(1) %unused.capture, ptr noundef %0)
  ret void
}